target datalayout = "e-m:e-p270:32:32-p271:32:32-p272:64:64-i64:64-i128:128-f80:128-n8:16:32:64-S128"
target triple = "x86_64-pc-linux-gnu"

%struct.FLAC__Subframe_Fixed = type { %struct.FLAC__EntropyCodingMethod, i32, [4 x i64], ptr }
%struct.FLAC__EntropyCodingMethod = type { i32, %union.anon.1 }
%union.anon.1 = type { %struct.FLAC__EntropyCodingMethod_PartitionedRice }
%struct.FLAC__EntropyCodingMethod_PartitionedRice = type { i32, ptr }
%struct.FLAC__EntropyCodingMethod_PartitionedRiceContents = type { ptr, ptr, i32 }

@FLAC__SUBFRAME_ZERO_PAD_LEN = external constant i32, align 4
@FLAC__SUBFRAME_TYPE_LEN = external constant i32, align 4
@FLAC__SUBFRAME_WASTED_BITS_FLAG_LEN = external constant i32, align 4
@FLAC__SUBFRAME_TYPE_FIXED_BYTE_ALIGNED_MASK = external constant i32, align 4
@FLAC__ENTROPY_CODING_METHOD_TYPE_LEN = external constant i32, align 4
@FLAC__ENTROPY_CODING_METHOD_PARTITIONED_RICE_ORDER_LEN = external constant i32, align 4

; Function Attrs: nounwind sspstrong uwtable
define internal i32 @add_entropy_coding_method_(ptr noundef %0, ptr noundef %1) #0 {
  %3 = alloca i32, align 4
  %4 = alloca ptr, align 8
  %5 = alloca ptr, align 8
  store ptr %0, ptr %4, align 8, !tbaa !8
  store ptr %1, ptr %5, align 8, !tbaa !30
  %6 = load ptr, ptr %4, align 8, !tbaa !8
  %7 = load ptr, ptr %5, align 8, !tbaa !30
  %8 = getelementptr inbounds nuw %struct.FLAC__EntropyCodingMethod, ptr %7, i32 0, i32 0
  %9 = load i32, ptr %8, align 8, !tbaa !61
  %10 = load i32, ptr @FLAC__ENTROPY_CODING_METHOD_TYPE_LEN, align 4, !tbaa !10
  %11 = call i32 @FLAC__bitwriter_write_raw_uint32(ptr noundef %6, i32 noundef %9, i32 noundef %10)
  %12 = icmp ne i32 %11, 0
  br i1 %12, label %14, label %13

13:                                               ; preds = %2
  store i32 0, ptr %3, align 4
  br label %31

14:                                               ; preds = %2
  %15 = load ptr, ptr %5, align 8, !tbaa !30
  %16 = getelementptr inbounds nuw %struct.FLAC__EntropyCodingMethod, ptr %15, i32 0, i32 0
  %17 = load i32, ptr %16, align 8, !tbaa !61
  switch i32 %17, label %29 [
    i32 0, label %18
    i32 1, label %18
  ]

18:                                               ; preds = %14, %14
  %19 = load ptr, ptr %4, align 8, !tbaa !8
  %20 = load ptr, ptr %5, align 8, !tbaa !30
  %21 = getelementptr inbounds nuw %struct.FLAC__EntropyCodingMethod, ptr %20, i32 0, i32 1
  %22 = getelementptr inbounds nuw %struct.FLAC__EntropyCodingMethod_PartitionedRice, ptr %21, i32 0, i32 0
  %23 = load i32, ptr %22, align 8, !tbaa !18
  %24 = load i32, ptr @FLAC__ENTROPY_CODING_METHOD_PARTITIONED_RICE_ORDER_LEN, align 4, !tbaa !10
  %25 = call i32 @FLAC__bitwriter_write_raw_uint32(ptr noundef %19, i32 noundef %23, i32 noundef %24)
  %26 = icmp ne i32 %25, 0
  br i1 %26, label %28, label %27

27:                                               ; preds = %18
  store i32 0, ptr %3, align 4
  br label %31

28:                                               ; preds = %18
  br label %30

29:                                               ; preds = %14
  br label %30

30:                                               ; preds = %29, %28
  store i32 1, ptr %3, align 4
  br label %31

31:                                               ; preds = %30, %27, %13
  %32 = load i32, ptr %3, align 4
  ret i32 %32
}

; Function Attrs: nounwind sspstrong uwtable
define hidden i32 @FLAC__subframe_add_fixed(ptr noundef %0, i32 noundef %1, i32 noundef %2, i32 noundef %3, ptr noundef %4) #0 {
  %6 = alloca i32, align 4
  %7 = alloca ptr, align 8
  %8 = alloca i32, align 4
  %9 = alloca i32, align 4
  %10 = alloca i32, align 4
  %11 = alloca ptr, align 8
  %12 = alloca i32, align 4
  %13 = alloca i32, align 4
  store ptr %0, ptr %7, align 8, !tbaa !30
  store i32 %1, ptr %8, align 4, !tbaa !10
  store i32 %2, ptr %9, align 4, !tbaa !10
  store i32 %3, ptr %10, align 4, !tbaa !10
  store ptr %4, ptr %11, align 8, !tbaa !8
  call void @llvm.lifetime.start.p0(i64 4, ptr %12) #4
  %14 = load ptr, ptr %11, align 8, !tbaa !8
  %15 = load i32, ptr @FLAC__SUBFRAME_TYPE_FIXED_BYTE_ALIGNED_MASK, align 4, !tbaa !10
  %16 = load ptr, ptr %7, align 8, !tbaa !30
  %17 = getelementptr inbounds nuw %struct.FLAC__Subframe_Fixed, ptr %16, i32 0, i32 1
  %18 = load i32, ptr %17, align 8, !tbaa !51
  %19 = shl i32 %18, 1
  %20 = or i32 %15, %19
  %21 = load i32, ptr %10, align 4, !tbaa !10
  %22 = icmp ne i32 %21, 0
  %23 = select i1 %22, i32 1, i32 0
  %24 = or i32 %20, %23
  %25 = load i32, ptr @FLAC__SUBFRAME_ZERO_PAD_LEN, align 4, !tbaa !10
  %26 = load i32, ptr @FLAC__SUBFRAME_TYPE_LEN, align 4, !tbaa !10
  %27 = add i32 %25, %26
  %28 = load i32, ptr @FLAC__SUBFRAME_WASTED_BITS_FLAG_LEN, align 4, !tbaa !10
  %29 = add i32 %27, %28
  %30 = call i32 @FLAC__bitwriter_write_raw_uint32(ptr noundef %14, i32 noundef %24, i32 noundef %29)
  %31 = icmp ne i32 %30, 0
  br i1 %31, label %33, label %32

32:                                               ; preds = %5
  store i32 0, ptr %6, align 4
  store i32 1, ptr %13, align 4
  br label %119

33:                                               ; preds = %5
  %34 = load i32, ptr %10, align 4, !tbaa !10
  %35 = icmp ne i32 %34, 0
  br i1 %35, label %36, label %44

36:                                               ; preds = %33
  %37 = load ptr, ptr %11, align 8, !tbaa !8
  %38 = load i32, ptr %10, align 4, !tbaa !10
  %39 = sub i32 %38, 1
  %40 = call i32 @FLAC__bitwriter_write_unary_unsigned(ptr noundef %37, i32 noundef %39)
  %41 = icmp ne i32 %40, 0
  br i1 %41, label %43, label %42

42:                                               ; preds = %36
  store i32 0, ptr %6, align 4
  store i32 1, ptr %13, align 4
  br label %119

43:                                               ; preds = %36
  br label %44

44:                                               ; preds = %43, %33
  store i32 0, ptr %12, align 4, !tbaa !10
  br label %45

45:                                               ; preds = %64, %44
  %46 = load i32, ptr %12, align 4, !tbaa !10
  %47 = load ptr, ptr %7, align 8, !tbaa !30
  %48 = getelementptr inbounds nuw %struct.FLAC__Subframe_Fixed, ptr %47, i32 0, i32 1
  %49 = load i32, ptr %48, align 8, !tbaa !51
  %50 = icmp ult i32 %46, %49
  br i1 %50, label %51, label %67

51:                                               ; preds = %45
  %52 = load ptr, ptr %11, align 8, !tbaa !8
  %53 = load ptr, ptr %7, align 8, !tbaa !30
  %54 = getelementptr inbounds nuw %struct.FLAC__Subframe_Fixed, ptr %53, i32 0, i32 2
  %55 = load i32, ptr %12, align 4, !tbaa !10
  %56 = zext i32 %55 to i64
  %57 = getelementptr inbounds nuw [4 x i64], ptr %54, i64 0, i64 %56
  %58 = load i64, ptr %57, align 8, !tbaa !41
  %59 = load i32, ptr %9, align 4, !tbaa !10
  %60 = call i32 @FLAC__bitwriter_write_raw_int64(ptr noundef %52, i64 noundef %58, i32 noundef %59)
  %61 = icmp ne i32 %60, 0
  br i1 %61, label %63, label %62

62:                                               ; preds = %51
  store i32 0, ptr %6, align 4
  store i32 1, ptr %13, align 4
  br label %119

63:                                               ; preds = %51
  br label %64

64:                                               ; preds = %63
  %65 = load i32, ptr %12, align 4, !tbaa !10
  %66 = add i32 %65, 1
  store i32 %66, ptr %12, align 4, !tbaa !10
  br label %45, !llvm.loop !55

67:                                               ; preds = %45
  %68 = load ptr, ptr %11, align 8, !tbaa !8
  %69 = load ptr, ptr %7, align 8, !tbaa !30
  %70 = getelementptr inbounds nuw %struct.FLAC__Subframe_Fixed, ptr %69, i32 0, i32 0
  %71 = call i32 @add_entropy_coding_method_(ptr noundef %68, ptr noundef %70)
  %72 = icmp ne i32 %71, 0
  br i1 %72, label %74, label %73

73:                                               ; preds = %67
  store i32 0, ptr %6, align 4
  store i32 1, ptr %13, align 4
  br label %119

74:                                               ; preds = %67
  %75 = load ptr, ptr %7, align 8, !tbaa !30
  %76 = getelementptr inbounds nuw %struct.FLAC__Subframe_Fixed, ptr %75, i32 0, i32 0
  %77 = getelementptr inbounds nuw %struct.FLAC__EntropyCodingMethod, ptr %76, i32 0, i32 0
  %78 = load i32, ptr %77, align 8, !tbaa !56
  switch i32 %78, label %117 [
    i32 0, label %79
    i32 1, label %79
  ]

79:                                               ; preds = %74, %74
  %80 = load ptr, ptr %11, align 8, !tbaa !8
  %81 = load ptr, ptr %7, align 8, !tbaa !30
  %82 = getelementptr inbounds nuw %struct.FLAC__Subframe_Fixed, ptr %81, i32 0, i32 3
  %83 = load ptr, ptr %82, align 8, !tbaa !57
  %84 = load i32, ptr %8, align 4, !tbaa !10
  %85 = load ptr, ptr %7, align 8, !tbaa !30
  %86 = getelementptr inbounds nuw %struct.FLAC__Subframe_Fixed, ptr %85, i32 0, i32 1
  %87 = load i32, ptr %86, align 8, !tbaa !51
  %88 = load ptr, ptr %7, align 8, !tbaa !30
  %89 = getelementptr inbounds nuw %struct.FLAC__Subframe_Fixed, ptr %88, i32 0, i32 0
  %90 = getelementptr inbounds nuw %struct.FLAC__EntropyCodingMethod, ptr %89, i32 0, i32 1
  %91 = getelementptr inbounds nuw %struct.FLAC__EntropyCodingMethod_PartitionedRice, ptr %90, i32 0, i32 1
  %92 = load ptr, ptr %91, align 8, !tbaa !18
  %93 = getelementptr inbounds nuw %struct.FLAC__EntropyCodingMethod_PartitionedRiceContents, ptr %92, i32 0, i32 0
  %94 = load ptr, ptr %93, align 8, !tbaa !58
  %95 = load ptr, ptr %7, align 8, !tbaa !30
  %96 = getelementptr inbounds nuw %struct.FLAC__Subframe_Fixed, ptr %95, i32 0, i32 0
  %97 = getelementptr inbounds nuw %struct.FLAC__EntropyCodingMethod, ptr %96, i32 0, i32 1
  %98 = getelementptr inbounds nuw %struct.FLAC__EntropyCodingMethod_PartitionedRice, ptr %97, i32 0, i32 1
  %99 = load ptr, ptr %98, align 8, !tbaa !18
  %100 = getelementptr inbounds nuw %struct.FLAC__EntropyCodingMethod_PartitionedRiceContents, ptr %99, i32 0, i32 1
  %101 = load ptr, ptr %100, align 8, !tbaa !60
  %102 = load ptr, ptr %7, align 8, !tbaa !30
  %103 = getelementptr inbounds nuw %struct.FLAC__Subframe_Fixed, ptr %102, i32 0, i32 0
  %104 = getelementptr inbounds nuw %struct.FLAC__EntropyCodingMethod, ptr %103, i32 0, i32 1
  %105 = getelementptr inbounds nuw %struct.FLAC__EntropyCodingMethod_PartitionedRice, ptr %104, i32 0, i32 0
  %106 = load i32, ptr %105, align 8, !tbaa !18
  %107 = load ptr, ptr %7, align 8, !tbaa !30
  %108 = getelementptr inbounds nuw %struct.FLAC__Subframe_Fixed, ptr %107, i32 0, i32 0
  %109 = getelementptr inbounds nuw %struct.FLAC__EntropyCodingMethod, ptr %108, i32 0, i32 0
  %110 = load i32, ptr %109, align 8, !tbaa !56
  %111 = icmp eq i32 %110, 1
  %112 = zext i1 %111 to i32
  %113 = call i32 @add_residual_partitioned_rice_(ptr noundef %80, ptr noundef %83, i32 noundef %84, i32 noundef %87, ptr noundef %94, ptr noundef %101, i32 noundef %106, i32 noundef %112)
  %114 = icmp ne i32 %113, 0
  br i1 %114, label %116, label %115

115:                                              ; preds = %79
  store i32 0, ptr %6, align 4
  store i32 1, ptr %13, align 4
  br label %119

116:                                              ; preds = %79
  br label %118

117:                                              ; preds = %74
  br label %118

118:                                              ; preds = %117, %116
  store i32 1, ptr %6, align 4
  store i32 1, ptr %13, align 4
  br label %119

119:                                              ; preds = %118, %115, %73, %62, %42, %32
  call void @llvm.lifetime.end.p0(i64 4, ptr %12) #4
  %120 = load i32, ptr %6, align 4
  ret i32 %120
}