; Function Attrs: nounwind sspstrong uwtable
define hidden range(i32 0, 2) i32 @FLAC__subframe_add_fixed(ptr noundef readonly captures(none) %0, i32 noundef %1, i32 noundef %2, i32 noundef %3, ptr noundef %4) local_unnamed_addr #0 {
  %6 = load i32, ptr @FLAC__SUBFRAME_TYPE_FIXED_BYTE_ALIGNED_MASK, align 4, !tbaa !11
  %7 = getelementptr inbounds nuw i8, ptr %0, i64 24
  %8 = load i32, ptr %7, align 8, !tbaa !45
  %9 = shl i32 %8, 1
  %.not = icmp ne i32 %3, 0
  %10 = zext i1 %.not to i32
  %11 = or i32 %6, %10
  %12 = or i32 %11, %9
  %13 = load i32, ptr @FLAC__SUBFRAME_ZERO_PAD_LEN, align 4, !tbaa !11
  %14 = load i32, ptr @FLAC__SUBFRAME_TYPE_LEN, align 4, !tbaa !11
  %15 = add i32 %14, %13
  %16 = load i32, ptr @FLAC__SUBFRAME_WASTED_BITS_FLAG_LEN, align 4, !tbaa !11
  %17 = add i32 %15, %16
  %18 = tail call i32 @FLAC__bitwriter_write_raw_uint32(ptr noundef %4, i32 noundef %12, i32 noundef %17) #6
  %.not26 = icmp eq i32 %18, 0
  br i1 %.not26, label %add_entropy_coding_method_.exit.thread, label %19

19:                                               ; preds = %5
  br i1 %.not, label %20, label %23

20:                                               ; preds = %19
  %21 = add i32 %3, -1
  %22 = tail call i32 @FLAC__bitwriter_write_unary_unsigned(ptr noundef %4, i32 noundef %21) #6
  %.not27 = icmp eq i32 %22, 0
  br i1 %.not27, label %add_entropy_coding_method_.exit.thread, label %23

23:                                               ; preds = %20, %19
  %24 = load i32, ptr %7, align 8, !tbaa !45
  %.not36 = icmp eq i32 %24, 0
  br i1 %.not36, label %._crit_edge, label %.lr.ph

.lr.ph:                                           ; preds = %23
  %25 = getelementptr inbounds nuw i8, ptr %0, i64 32
  br label %30

26:                                               ; preds = %30
  %indvars.iv.next = add nuw nsw i64 %indvars.iv, 1
  %27 = load i32, ptr %7, align 8, !tbaa !45
  %28 = zext i32 %27 to i64
  %29 = icmp samesign ult i64 %indvars.iv.next, %28
  br i1 %29, label %30, label %._crit_edge, !llvm.loop !49

30:                                               ; preds = %.lr.ph, %26
  %indvars.iv = phi i64 [ 0, %.lr.ph ], [ %indvars.iv.next, %26 ]
  %31 = getelementptr inbounds nuw [4 x i64], ptr %25, i64 0, i64 %indvars.iv
  %32 = load i64, ptr %31, align 8, !tbaa !50
  %33 = tail call i32 @FLAC__bitwriter_write_raw_int64(ptr noundef %4, i64 noundef %32, i32 noundef %2) #6
  %.not30 = icmp eq i32 %33, 0
  br i1 %.not30, label %add_entropy_coding_method_.exit.thread, label %26

._crit_edge:                                      ; preds = %26, %23
  %34 = load i32, ptr %0, align 8, !tbaa !51
  %35 = load i32, ptr @FLAC__ENTROPY_CODING_METHOD_TYPE_LEN, align 4, !tbaa !11
  %36 = tail call i32 @FLAC__bitwriter_write_raw_uint32(ptr noundef %4, i32 noundef %34, i32 noundef %35) #6
  %.not.i = icmp eq i32 %36, 0
  br i1 %.not.i, label %add_entropy_coding_method_.exit.thread, label %37

37:                                               ; preds = %._crit_edge
  %38 = load i32, ptr %0, align 8, !tbaa !51
  %switch.i = icmp ult i32 %38, 2
  br i1 %switch.i, label %39, label %add_entropy_coding_method_.exit.thread33

39:                                               ; preds = %37
  %40 = getelementptr inbounds nuw i8, ptr %0, i64 8
  %41 = load i32, ptr %40, align 8, !tbaa !14
  %42 = load i32, ptr @FLAC__ENTROPY_CODING_METHOD_PARTITIONED_RICE_ORDER_LEN, align 4, !tbaa !11
  %43 = tail call i32 @FLAC__bitwriter_write_raw_uint32(ptr noundef %4, i32 noundef %41, i32 noundef %42) #6
  %.not5.i = icmp eq i32 %43, 0
  br i1 %.not5.i, label %add_entropy_coding_method_.exit.thread, label %add_entropy_coding_method_.exit

add_entropy_coding_method_.exit:                  ; preds = %39
  %.pr = load i32, ptr %0, align 8, !tbaa !52
  %switch = icmp ult i32 %.pr, 2
  br i1 %switch, label %44, label %add_entropy_coding_method_.exit.thread33

44:                                               ; preds = %add_entropy_coding_method_.exit
  %45 = getelementptr inbounds nuw i8, ptr %0, i64 64
  %46 = load ptr, ptr %45, align 8, !tbaa !53
  %47 = load i32, ptr %7, align 8, !tbaa !45
  %48 = getelementptr inbounds nuw i8, ptr %0, i64 16
  %49 = load ptr, ptr %48, align 8, !tbaa !14
  %50 = load ptr, ptr %49, align 8, !tbaa !54
  %51 = getelementptr inbounds nuw i8, ptr %49, i64 8
  %52 = load ptr, ptr %51, align 8, !tbaa !56
  %53 = load i32, ptr %40, align 8, !tbaa !14
  %54 = icmp eq i32 %.pr, 1
  %55 = zext i1 %54 to i32
  %56 = tail call fastcc i32 @add_residual_partitioned_rice_(ptr noundef %4, ptr noundef %46, i32 noundef %1, i32 noundef %47, ptr noundef %50, ptr noundef %52, i32 noundef %53, i32 noundef %55)
  %.not29 = icmp eq i32 %56, 0
  br i1 %.not29, label %add_entropy_coding_method_.exit.thread, label %add_entropy_coding_method_.exit.thread33

add_entropy_coding_method_.exit.thread33:         ; preds = %37, %add_entropy_coding_method_.exit, %44
  br label %add_entropy_coding_method_.exit.thread

add_entropy_coding_method_.exit.thread:           ; preds = %30, %39, %._crit_edge, %44, %20, %5, %add_entropy_coding_method_.exit.thread33
  %.024 = phi i32 [ 1, %add_entropy_coding_method_.exit.thread33 ], [ 0, %5 ], [ 0, %20 ], [ 0, %44 ], [ 0, %._crit_edge ], [ 0, %39 ], [ 0, %30 ]
  ret i32 %.024
}